target datalayout = "e-m:e-p270:32:32-p271:32:32-p272:64:64-i64:64-i128:128-f80:128-n8:16:32:64-S128"
target triple = "x86_64-pc-linux-gnu"

; Function Attrs: mustprogress nounwind uwtable
define noundef i64 @_ZN13sentencepiece11string_util10EncodeUTF8EjPc(i32 noundef %0, ptr noundef %1) #4 {
  %3 = alloca i64, align 8
  %4 = alloca i32, align 4
  %5 = alloca ptr, align 8
  store i32 %0, ptr %4, align 4
  store ptr %1, ptr %5, align 8
  %6 = load i32, ptr %4, align 4
  %7 = icmp ule i32 %6, 127
  br i1 %7, label %8, label %12

8:                                                ; preds = %2
  %9 = load i32, ptr %4, align 4
  %10 = trunc i32 %9 to i8
  %11 = load ptr, ptr %5, align 8
  store i8 %10, ptr %11, align 1
  store i64 1, ptr %3, align 8
  br label %88

12:                                               ; preds = %2
  %13 = load i32, ptr %4, align 4
  %14 = icmp ule i32 %13, 2047
  br i1 %14, label %15, label %29

15:                                               ; preds = %12
  %16 = load i32, ptr %4, align 4
  %17 = and i32 %16, 63
  %18 = or i32 128, %17
  %19 = trunc i32 %18 to i8
  %20 = load ptr, ptr %5, align 8
  %21 = getelementptr inbounds i8, ptr %20, i64 1
  store i8 %19, ptr %21, align 1
  %22 = load i32, ptr %4, align 4
  %23 = lshr i32 %22, 6
  store i32 %23, ptr %4, align 4
  %24 = load i32, ptr %4, align 4
  %25 = or i32 192, %24
  %26 = trunc i32 %25 to i8
  %27 = load ptr, ptr %5, align 8
  %28 = getelementptr inbounds i8, ptr %27, i64 0
  store i8 %26, ptr %28, align 1
  store i64 2, ptr %3, align 8
  br label %88

29:                                               ; preds = %12
  %30 = load i32, ptr %4, align 4
  %31 = icmp ugt i32 %30, 1114111
  br i1 %31, label %32, label %33

32:                                               ; preds = %29
  store i32 65533, ptr %4, align 4
  br label %33

33:                                               ; preds = %32, %29
  %34 = load i32, ptr %4, align 4
  %35 = icmp ule i32 %34, 65535
  br i1 %35, label %36, label %58

36:                                               ; preds = %33
  %37 = load i32, ptr %4, align 4
  %38 = and i32 %37, 63
  %39 = or i32 128, %38
  %40 = trunc i32 %39 to i8
  %41 = load ptr, ptr %5, align 8
  %42 = getelementptr inbounds i8, ptr %41, i64 2
  store i8 %40, ptr %42, align 1
  %43 = load i32, ptr %4, align 4
  %44 = lshr i32 %43, 6
  store i32 %44, ptr %4, align 4
  %45 = load i32, ptr %4, align 4
  %46 = and i32 %45, 63
  %47 = or i32 128, %46
  %48 = trunc i32 %47 to i8
  %49 = load ptr, ptr %5, align 8
  %50 = getelementptr inbounds i8, ptr %49, i64 1
  store i8 %48, ptr %50, align 1
  %51 = load i32, ptr %4, align 4
  %52 = lshr i32 %51, 6
  store i32 %52, ptr %4, align 4
  %53 = load i32, ptr %4, align 4
  %54 = or i32 224, %53
  %55 = trunc i32 %54 to i8
  %56 = load ptr, ptr %5, align 8
  %57 = getelementptr inbounds i8, ptr %56, i64 0
  store i8 %55, ptr %57, align 1
  store i64 3, ptr %3, align 8
  br label %88

58:                                               ; preds = %33
  %59 = load i32, ptr %4, align 4
  %60 = and i32 %59, 63
  %61 = or i32 128, %60
  %62 = trunc i32 %61 to i8
  %63 = load ptr, ptr %5, align 8
  %64 = getelementptr inbounds i8, ptr %63, i64 3
  store i8 %62, ptr %64, align 1
  %65 = load i32, ptr %4, align 4
  %66 = lshr i32 %65, 6
  store i32 %66, ptr %4, align 4
  %67 = load i32, ptr %4, align 4
  %68 = and i32 %67, 63
  %69 = or i32 128, %68
  %70 = trunc i32 %69 to i8
  %71 = load ptr, ptr %5, align 8
  %72 = getelementptr inbounds i8, ptr %71, i64 2
  store i8 %70, ptr %72, align 1
  %73 = load i32, ptr %4, align 4
  %74 = lshr i32 %73, 6
  store i32 %74, ptr %4, align 4
  %75 = load i32, ptr %4, align 4
  %76 = and i32 %75, 63
  %77 = or i32 128, %76
  %78 = trunc i32 %77 to i8
  %79 = load ptr, ptr %5, align 8
  %80 = getelementptr inbounds i8, ptr %79, i64 1
  store i8 %78, ptr %80, align 1
  %81 = load i32, ptr %4, align 4
  %82 = lshr i32 %81, 6
  store i32 %82, ptr %4, align 4
  %83 = load i32, ptr %4, align 4
  %84 = or i32 240, %83
  %85 = trunc i32 %84 to i8
  %86 = load ptr, ptr %5, align 8
  %87 = getelementptr inbounds i8, ptr %86, i64 0
  store i8 %85, ptr %87, align 1
  store i64 4, ptr %3, align 8
  br label %88

88:                                               ; preds = %58, %36, %15, %8
  %89 = load i64, ptr %3, align 8
  ret i64 %89
}