; Function Attrs: mustprogress nofree norecurse nosync nounwind willreturn memory(argmem: write) uwtable
define noundef range(i64 1, 5) i64 @_ZN13sentencepiece11string_util10EncodeUTF8EjPc(i32 noundef %0, ptr nocapture noundef writeonly %1) local_unnamed_addr #7 {
  %3 = icmp ult i32 %0, 128
  br i1 %3, label %4, label %6

4:                                                ; preds = %2
  %5 = trunc nuw nsw i32 %0 to i8
  br label %41

6:                                                ; preds = %2
  %7 = icmp ult i32 %0, 2048
  br i1 %7, label %8, label %16

8:                                                ; preds = %6
  %9 = trunc i32 %0 to i8
  %10 = and i8 %9, 63
  %11 = or disjoint i8 %10, -128
  %12 = getelementptr inbounds i8, ptr %1, i64 1
  store i8 %11, ptr %12, align 1
  %13 = lshr i32 %0, 6
  %14 = trunc nuw i32 %13 to i8
  %15 = or disjoint i8 %14, -64
  br label %41

16:                                               ; preds = %6
  %17 = icmp ugt i32 %0, 1114111
  %spec.store.select = select i1 %17, i32 65533, i32 %0
  %18 = icmp ult i32 %spec.store.select, 65536
  %19 = trunc i32 %spec.store.select to i8
  %20 = and i8 %19, 63
  %21 = or disjoint i8 %20, -128
  %22 = lshr i32 %spec.store.select, 6
  %23 = trunc i32 %22 to i8
  %24 = and i8 %23, 63
  %25 = or disjoint i8 %24, -128
  %26 = lshr i32 %spec.store.select, 12
  %27 = trunc i32 %26 to i8
  br i1 %18, label %28, label %32

28:                                               ; preds = %16
  %29 = getelementptr inbounds i8, ptr %1, i64 2
  store i8 %21, ptr %29, align 1
  %30 = getelementptr inbounds i8, ptr %1, i64 1
  store i8 %25, ptr %30, align 1
  %31 = or disjoint i8 %27, -32
  br label %41

32:                                               ; preds = %16
  %33 = getelementptr inbounds i8, ptr %1, i64 3
  store i8 %21, ptr %33, align 1
  %34 = getelementptr inbounds i8, ptr %1, i64 2
  store i8 %25, ptr %34, align 1
  %35 = and i8 %27, 63
  %36 = or disjoint i8 %35, -128
  %37 = getelementptr inbounds i8, ptr %1, i64 1
  store i8 %36, ptr %37, align 1
  %38 = lshr i32 %spec.store.select, 18
  %39 = trunc nuw nsw i32 %38 to i8
  %40 = or disjoint i8 %39, -16
  br label %41

41:                                               ; preds = %32, %28, %8, %4
  %.sink = phi i8 [ %40, %32 ], [ %31, %28 ], [ %15, %8 ], [ %5, %4 ]
  %.0 = phi i64 [ 4, %32 ], [ 3, %28 ], [ 2, %8 ], [ 1, %4 ]
  store i8 %.sink, ptr %1, align 1
  ret i64 %.0
}